(dp1
S'trading_token'
p2
(ictaStrategy.strategy.strategySA_hcrb
TradingToken
p3
(dp4
S'held_by_list'
p5
(lp6
sbsS'states'
p7
(lp8
(dp9
S'state_class'
p10
cctaStrategy.strategy.strategySA_hcrb
WaitCloseState
p11
sS'tradePrice_act'
p12
F3962
sS'nested_state_class'
p13
cctaStrategy.strategy.strategySA_hcrb
LongSpreadState
p14
sS'alive'
p15
I01
sS'state_id'
p16
I0
sS'state_rand_id'
p17
I979
sS'tradePrice_pas'
p18
F3628
sas.